(dp1
I0
F0.020851615261930488
sI1
F0.11980537300682528
sI2
F0.067744481473721987
sI3
F9.992589688842966e-10
sI4
F7.8933974285075793e-54
sI5
F0.33333507114328936
sI6
F0.22222338076219267
sI7
F0.12698478900696725
sI8
F0.06349239450348361
sI9
F0.028218842001548314
sI10
F0.011287536800619315
sI11
F0.0041045588365888419
sI12
F0.0013681862788629479
sI13
F0.00042098039349629197
sI14
F0.00012028011242751155
sI15
F3.2074696647336408e-05
sI16
F8.0186741618340985e-06
sI17
F1.8867468616080252e-06
sI18
F4.192770803573402e-07
sI19
F8.8268859022597819e-08
sI20
F1.7653771804519576e-08
sI21
F3.3626232008608741e-09
sI22
F6.1138603652015677e-10
sI23
F1.0632800635133162e-10
sI24
F1.7721334391888611e-11
sI25
F2.835413502702193e-12
sI26
F4.3621746195418139e-13
sI27
F6.4624809178397933e-14
sI28
F9.2321155969138434e-15
sI29
F1.2733952547467591e-15
sI30
F1.6978603396623357e-16
sI31
F2.1907875350481778e-17
sI32
F2.7384844188102261e-18
sI33
F3.3193750531032237e-19
sI34
F3.9051471212980181e-20
sI35
F4.4630252814834445e-21
sI36
F4.9589169794260022e-22
sI37
F5.36099132910932e-23
sI38
F5.6431487674833744e-24
sI39
F5.7878448897265764e-25
sI40
F5.7878448897265503e-26
sI41
F5.6466779411966489e-27
sI42
F5.3777885154254306e-28
sI43
F5.0025939678375241e-29
sI44
F4.5478126980341361e-30
sI45
F4.0425001760301941e-31
sI46
F3.5152175443742627e-32
sI47
F2.9916745058503504e-33
sI48
F2.4930620882086573e-34
sI49
F2.0351527250683204e-35
sI50
F1.6281221800546502e-36
sI51
F1.2769585725918323e-37
sI52
F9.8227582507064752e-39
sI53
F7.4134024533633357e-40
sI54
F5.4914092247136307e-41
sI55
F3.9937521634280061e-42
sI56
F2.8526801167343401e-43
sI57
F2.0018807836732729e-44
sI58
F1.3806074370160323e-45
sI59
F9.3600504204477849e-47
sI60
F6.2400336136315869e-48
sI61
F4.0918253204142188e-49
sI62
F2.6398873034931542e-50
sI63
F1.6761189228527715e-51
sI64
F1.0475743267829744e-52
sI65
F6.4466112417415276e-54
sI66
F3.9070371162068563e-55
sI67
F2.3325594723622722e-56
sI68
F1.3720938072719211e-57
sI69
F7.9541669986777969e-59
sI70
F4.5452382849590175e-60
sI71
F2.5606976253289085e-61
sI72
F1.4226097918493977e-62
sI73
F7.7951221471198371e-64
sI74
F4.2135795389839391e-65
sI75
F2.2472424207913712e-66
sI76
F1.1827591688375536e-67
sI77
F6.1442034744807972e-69
sI78
F3.1508735766569453e-70
sI79
F1.5953790261554935e-71
sI80
F7.9768951307766224e-73
sI81
F3.9392074719883955e-74
sI82
F1.9215646204821048e-75
sI83
F9.2605523878661387e-77
sI84
F4.4097868513649239e-78
sI85
F2.0751938124069896e-79
sI86
F9.6520642437535323e-81
sI87
F4.4377306867830686e-82
sI88
F2.0171503121741864e-83
sI89
F9.0658440996597338e-85
sI90
F4.0292640442930584e-86
sI91
F1.7711050744144346e-87
sI92
F7.7004568452800955e-89
sI93
F3.3120244495829887e-90
sI94
F1.409372106205564e-91
sI95
F5.9341983419182025e-93
sI96
F2.4725826424657694e-94
sI97
F1.0196217082333034e-95
sI98
F4.1617212580952852e-97
sI99
F1.6815035386243325e-98
sI100
F6.726014154497484e-100
s.